target datalayout = "e-m:e-p270:32:32-p271:32:32-p272:64:64-i64:64-i128:128-f80:128-n8:16:32:64-S128"
target triple = "x86_64-unknown-linux-gnu"

%"struct.node::AssertionInfo" = type { ptr, ptr, ptr }
%"class.node::crypto::NodeBIO" = type { %"class.node::MemoryRetainer", ptr, i64, i64, i64, i32, ptr, ptr }
%"class.node::MemoryRetainer" = type { ptr }
%"class.node::crypto::NodeBIO::Buffer" = type { ptr, i64, i64, i64, ptr, ptr }

@_ZZN4node6crypto7NodeBIO4ReadEPcmE4args = internal constant %"struct.node::AssertionInfo" { ptr @.str.5, ptr @.str.6, ptr @.str.7 }, align 8
@_ZZN4node6crypto7NodeBIO4ReadEPcmE4args_0 = internal constant %"struct.node::AssertionInfo" { ptr @.str.8, ptr @.str.9, ptr @.str.7 }, align 8

; Function Attrs: mustprogress nounwind uwtable
define dso_local void @_ZN4node6crypto7NodeBIO15TryMoveReadHeadEv(ptr noundef nonnull align 8 dereferenceable(64) %this) #4 align 2 {
entry:
  %this.addr = alloca ptr, align 8
  store ptr %this, ptr %this.addr, align 8
  %this1 = load ptr, ptr %this.addr, align 8
  br label %while.cond

while.cond:                                       ; preds = %if.end, %entry
  %read_head_ = getelementptr inbounds %"class.node::crypto::NodeBIO", ptr %this1, i32 0, i32 6
  %0 = load ptr, ptr %read_head_, align 8
  %read_pos_ = getelementptr inbounds %"class.node::crypto::NodeBIO::Buffer", ptr %0, i32 0, i32 1
  %1 = load i64, ptr %read_pos_, align 8
  %cmp = icmp ne i64 %1, 0
  br i1 %cmp, label %land.rhs, label %land.end

land.rhs:                                         ; preds = %while.cond
  %read_head_2 = getelementptr inbounds %"class.node::crypto::NodeBIO", ptr %this1, i32 0, i32 6
  %2 = load ptr, ptr %read_head_2, align 8
  %read_pos_3 = getelementptr inbounds %"class.node::crypto::NodeBIO::Buffer", ptr %2, i32 0, i32 1
  %3 = load i64, ptr %read_pos_3, align 8
  %read_head_4 = getelementptr inbounds %"class.node::crypto::NodeBIO", ptr %this1, i32 0, i32 6
  %4 = load ptr, ptr %read_head_4, align 8
  %write_pos_ = getelementptr inbounds %"class.node::crypto::NodeBIO::Buffer", ptr %4, i32 0, i32 2
  %5 = load i64, ptr %write_pos_, align 8
  %cmp5 = icmp eq i64 %3, %5
  br label %land.end

land.end:                                         ; preds = %land.rhs, %while.cond
  %6 = phi i1 [ false, %while.cond ], [ %cmp5, %land.rhs ]
  br i1 %6, label %while.body, label %while.end

while.body:                                       ; preds = %land.end
  %read_head_6 = getelementptr inbounds %"class.node::crypto::NodeBIO", ptr %this1, i32 0, i32 6
  %7 = load ptr, ptr %read_head_6, align 8
  %read_pos_7 = getelementptr inbounds %"class.node::crypto::NodeBIO::Buffer", ptr %7, i32 0, i32 1
  store i64 0, ptr %read_pos_7, align 8
  %read_head_8 = getelementptr inbounds %"class.node::crypto::NodeBIO", ptr %this1, i32 0, i32 6
  %8 = load ptr, ptr %read_head_8, align 8
  %write_pos_9 = getelementptr inbounds %"class.node::crypto::NodeBIO::Buffer", ptr %8, i32 0, i32 2
  store i64 0, ptr %write_pos_9, align 8
  %read_head_10 = getelementptr inbounds %"class.node::crypto::NodeBIO", ptr %this1, i32 0, i32 6
  %9 = load ptr, ptr %read_head_10, align 8
  %write_head_ = getelementptr inbounds %"class.node::crypto::NodeBIO", ptr %this1, i32 0, i32 7
  %10 = load ptr, ptr %write_head_, align 8
  %cmp11 = icmp ne ptr %9, %10
  br i1 %cmp11, label %if.then, label %if.end

if.then:                                          ; preds = %while.body
  %read_head_12 = getelementptr inbounds %"class.node::crypto::NodeBIO", ptr %this1, i32 0, i32 6
  %11 = load ptr, ptr %read_head_12, align 8
  %next_ = getelementptr inbounds %"class.node::crypto::NodeBIO::Buffer", ptr %11, i32 0, i32 4
  %12 = load ptr, ptr %next_, align 8
  %read_head_13 = getelementptr inbounds %"class.node::crypto::NodeBIO", ptr %this1, i32 0, i32 6
  store ptr %12, ptr %read_head_13, align 8
  br label %if.end

if.end:                                           ; preds = %if.then, %while.body
  br label %while.cond, !llvm.loop !13

while.end:                                        ; preds = %land.end
  ret void
}

; Function Attrs: mustprogress nounwind uwtable
define linkonce_odr dso_local noundef i64 @_ZNK4node6crypto7NodeBIO6LengthEv(ptr noundef nonnull align 8 dereferenceable(64) %this) #4 comdat align 2 {
entry:
  %this.addr = alloca ptr, align 8
  store ptr %this, ptr %this.addr, align 8
  %this1 = load ptr, ptr %this.addr, align 8
  %length_ = getelementptr inbounds %"class.node::crypto::NodeBIO", ptr %this1, i32 0, i32 3
  %0 = load i64, ptr %length_, align 8
  ret i64 %0
}

; Function Attrs: mustprogress nounwind uwtable
define dso_local noundef i64 @_ZN4node6crypto7NodeBIO4ReadEPcm(ptr noundef nonnull align 8 dereferenceable(64) %this, ptr noundef %out, i64 noundef %size) #4 align 2 {
entry:
  %this.addr = alloca ptr, align 8
  %out.addr = alloca ptr, align 8
  %size.addr = alloca i64, align 8
  %bytes_read = alloca i64, align 8
  %expected = alloca i64, align 8
  %offset = alloca i64, align 8
  %left = alloca i64, align 8
  %avail = alloca i64, align 8
  store ptr %this, ptr %this.addr, align 8
  store ptr %out, ptr %out.addr, align 8
  store i64 %size, ptr %size.addr, align 8
  %this1 = load ptr, ptr %this.addr, align 8
  store i64 0, ptr %bytes_read, align 8
  %call = call noundef i64 @_ZNK4node6crypto7NodeBIO6LengthEv(ptr noundef nonnull align 8 dereferenceable(64) %this1)
  %0 = load i64, ptr %size.addr, align 8
  %cmp = icmp ugt i64 %call, %0
  br i1 %cmp, label %cond.true, label %cond.false

cond.true:                                        ; preds = %entry
  %1 = load i64, ptr %size.addr, align 8
  br label %cond.end

cond.false:                                       ; preds = %entry
  %call2 = call noundef i64 @_ZNK4node6crypto7NodeBIO6LengthEv(ptr noundef nonnull align 8 dereferenceable(64) %this1)
  br label %cond.end

cond.end:                                         ; preds = %cond.false, %cond.true
  %cond = phi i64 [ %1, %cond.true ], [ %call2, %cond.false ]
  store i64 %cond, ptr %expected, align 8
  store i64 0, ptr %offset, align 8
  %2 = load i64, ptr %size.addr, align 8
  store i64 %2, ptr %left, align 8
  br label %while.cond

while.cond:                                       ; preds = %if.end23, %cond.end
  %3 = load i64, ptr %bytes_read, align 8
  %4 = load i64, ptr %expected, align 8
  %cmp3 = icmp ult i64 %3, %4
  br i1 %cmp3, label %while.body, label %while.end

while.body:                                       ; preds = %while.cond
  br label %do.body

do.body:                                          ; preds = %while.body
  %read_head_ = getelementptr inbounds %"class.node::crypto::NodeBIO", ptr %this1, i32 0, i32 6
  %5 = load ptr, ptr %read_head_, align 8
  %read_pos_ = getelementptr inbounds %"class.node::crypto::NodeBIO::Buffer", ptr %5, i32 0, i32 1
  %6 = load i64, ptr %read_pos_, align 8
  %read_head_4 = getelementptr inbounds %"class.node::crypto::NodeBIO", ptr %this1, i32 0, i32 6
  %7 = load ptr, ptr %read_head_4, align 8
  %write_pos_ = getelementptr inbounds %"class.node::crypto::NodeBIO::Buffer", ptr %7, i32 0, i32 2
  %8 = load i64, ptr %write_pos_, align 8
  %cmp5 = icmp ule i64 %6, %8
  %lnot = xor i1 %cmp5, true
  %lnot6 = xor i1 %lnot, true
  %lnot7 = xor i1 %lnot6, true
  br i1 %lnot7, label %if.then, label %if.end

if.then:                                          ; preds = %do.body
  br label %do.body8

do.body8:                                         ; preds = %if.then
  call void @_ZN4node6AssertERKNS_13AssertionInfoE(ptr noundef nonnull align 8 dereferenceable(24) @_ZZN4node6crypto7NodeBIO4ReadEPcmE4args)
  call void @abort() #12
  unreachable

do.end:                                           ; No predecessors!
  br label %if.end

if.end:                                           ; preds = %do.end, %do.body
  br label %do.end9

do.end9:                                          ; preds = %if.end
  %read_head_10 = getelementptr inbounds %"class.node::crypto::NodeBIO", ptr %this1, i32 0, i32 6
  %9 = load ptr, ptr %read_head_10, align 8
  %write_pos_11 = getelementptr inbounds %"class.node::crypto::NodeBIO::Buffer", ptr %9, i32 0, i32 2
  %10 = load i64, ptr %write_pos_11, align 8
  %read_head_12 = getelementptr inbounds %"class.node::crypto::NodeBIO", ptr %this1, i32 0, i32 6
  %11 = load ptr, ptr %read_head_12, align 8
  %read_pos_13 = getelementptr inbounds %"class.node::crypto::NodeBIO::Buffer", ptr %11, i32 0, i32 1
  %12 = load i64, ptr %read_pos_13, align 8
  %sub = sub i64 %10, %12
  store i64 %sub, ptr %avail, align 8
  %13 = load i64, ptr %avail, align 8
  %14 = load i64, ptr %left, align 8
  %cmp14 = icmp ugt i64 %13, %14
  br i1 %cmp14, label %if.then15, label %if.end16

if.then15:                                        ; preds = %do.end9
  %15 = load i64, ptr %left, align 8
  store i64 %15, ptr %avail, align 8
  br label %if.end16

if.end16:                                         ; preds = %if.then15, %do.end9
  %16 = load ptr, ptr %out.addr, align 8
  %cmp17 = icmp ne ptr %16, null
  br i1 %cmp17, label %if.then18, label %if.end23

if.then18:                                        ; preds = %if.end16
  %17 = load ptr, ptr %out.addr, align 8
  %18 = load i64, ptr %offset, align 8
  %add.ptr = getelementptr inbounds i8, ptr %17, i64 %18
  %read_head_19 = getelementptr inbounds %"class.node::crypto::NodeBIO", ptr %this1, i32 0, i32 6
  %19 = load ptr, ptr %read_head_19, align 8
  %data_ = getelementptr inbounds %"class.node::crypto::NodeBIO::Buffer", ptr %19, i32 0, i32 5
  %20 = load ptr, ptr %data_, align 8
  %read_head_20 = getelementptr inbounds %"class.node::crypto::NodeBIO", ptr %this1, i32 0, i32 6
  %21 = load ptr, ptr %read_head_20, align 8
  %read_pos_21 = getelementptr inbounds %"class.node::crypto::NodeBIO::Buffer", ptr %21, i32 0, i32 1
  %22 = load i64, ptr %read_pos_21, align 8
  %add.ptr22 = getelementptr inbounds i8, ptr %20, i64 %22
  %23 = load i64, ptr %avail, align 8
  call void @llvm.memcpy.p0.p0.i64(ptr align 1 %add.ptr, ptr align 1 %add.ptr22, i64 %23, i1 false)
  br label %if.end23

if.end23:                                         ; preds = %if.then18, %if.end16
  %24 = load i64, ptr %avail, align 8
  %read_head_24 = getelementptr inbounds %"class.node::crypto::NodeBIO", ptr %this1, i32 0, i32 6
  %25 = load ptr, ptr %read_head_24, align 8
  %read_pos_25 = getelementptr inbounds %"class.node::crypto::NodeBIO::Buffer", ptr %25, i32 0, i32 1
  %26 = load i64, ptr %read_pos_25, align 8
  %add = add i64 %26, %24
  store i64 %add, ptr %read_pos_25, align 8
  %27 = load i64, ptr %avail, align 8
  %28 = load i64, ptr %bytes_read, align 8
  %add26 = add i64 %28, %27
  store i64 %add26, ptr %bytes_read, align 8
  %29 = load i64, ptr %avail, align 8
  %30 = load i64, ptr %offset, align 8
  %add27 = add i64 %30, %29
  store i64 %add27, ptr %offset, align 8
  %31 = load i64, ptr %avail, align 8
  %32 = load i64, ptr %left, align 8
  %sub28 = sub i64 %32, %31
  store i64 %sub28, ptr %left, align 8
  call void @_ZN4node6crypto7NodeBIO15TryMoveReadHeadEv(ptr noundef nonnull align 8 dereferenceable(64) %this1)
  br label %while.cond, !llvm.loop !6

while.end:                                        ; preds = %while.cond
  br label %do.body29

do.body29:                                        ; preds = %while.end
  %33 = load i64, ptr %expected, align 8
  %34 = load i64, ptr %bytes_read, align 8
  %cmp30 = icmp eq i64 %33, %34
  %lnot31 = xor i1 %cmp30, true
  %lnot32 = xor i1 %lnot31, true
  %lnot33 = xor i1 %lnot32, true
  br i1 %lnot33, label %if.then34, label %if.end37

if.then34:                                        ; preds = %do.body29
  br label %do.body35

do.body35:                                        ; preds = %if.then34
  call void @_ZN4node6AssertERKNS_13AssertionInfoE(ptr noundef nonnull align 8 dereferenceable(24) @_ZZN4node6crypto7NodeBIO4ReadEPcmE4args_0)
  call void @abort() #12
  unreachable

do.end36:                                         ; No predecessors!
  br label %if.end37

if.end37:                                         ; preds = %do.end36, %do.body29
  br label %do.end38

do.end38:                                         ; preds = %if.end37
  %35 = load i64, ptr %bytes_read, align 8
  %length_ = getelementptr inbounds %"class.node::crypto::NodeBIO", ptr %this1, i32 0, i32 3
  %36 = load i64, ptr %length_, align 8
  %sub39 = sub i64 %36, %35
  store i64 %sub39, ptr %length_, align 8
  call void @_ZN4node6crypto7NodeBIO9FreeEmptyEv(ptr noundef nonnull align 8 dereferenceable(64) %this1)
  %37 = load i64, ptr %bytes_read, align 8
  ret i64 %37
}