; Function Attrs: mustprogress nounwind uwtable
define dso_local noundef i64 @_ZN4node6crypto7NodeBIO4ReadEPcm(ptr nocapture noundef nonnull align 8 dereferenceable(64) %this, ptr noundef writeonly %out, i64 noundef %size) local_unnamed_addr #3 align 2 {
entry:
  %length_.i = getelementptr inbounds i8, ptr %this, i64 24
  %0 = load i64, ptr %length_.i, align 8
  %spec.select18 = tail call i64 @llvm.umin.i64(i64 %0, i64 %size)
  %cmp320.not = icmp eq i64 %spec.select18, 0
  br i1 %cmp320.not, label %do.end38, label %do.body.lr.ph

do.body.lr.ph:                                    ; preds = %entry
  %read_head_ = getelementptr inbounds i8, ptr %this, i64 48
  %cmp17.not = icmp eq ptr %out, null
  %write_head_.i = getelementptr inbounds i8, ptr %this, i64 56
  %.pre26 = load ptr, ptr %read_head_, align 8
  br i1 %cmp17.not, label %do.body.us, label %do.body

do.body.us:                                       ; preds = %do.body.lr.ph, %_ZN4node6crypto7NodeBIO15TryMoveReadHeadEv.exit.us
  %1 = phi ptr [ %15, %_ZN4node6crypto7NodeBIO15TryMoveReadHeadEv.exit.us ], [ %.pre26, %do.body.lr.ph ]
  %left.023.us = phi i64 [ %sub28.us, %_ZN4node6crypto7NodeBIO15TryMoveReadHeadEv.exit.us ], [ %size, %do.body.lr.ph ]
  %bytes_read.021.us = phi i64 [ %add26.us, %_ZN4node6crypto7NodeBIO15TryMoveReadHeadEv.exit.us ], [ 0, %do.body.lr.ph ]
  %read_pos_.us = getelementptr inbounds i8, ptr %1, i64 8
  %2 = load i64, ptr %read_pos_.us, align 8
  %write_pos_.us = getelementptr inbounds i8, ptr %1, i64 16
  %3 = load i64, ptr %write_pos_.us, align 8
  %cmp5.not.us = icmp ugt i64 %2, %3
  br i1 %cmp5.not.us, label %do.body8, label %do.end9.us

do.end9.us:                                       ; preds = %do.body.us
  %sub.us = sub i64 %3, %2
  %spec.select.us = tail call i64 @llvm.umin.i64(i64 %sub.us, i64 %left.023.us)
  %add.us = add i64 %2, %spec.select.us
  store i64 %add.us, ptr %read_pos_.us, align 8
  %add26.us = add i64 %spec.select.us, %bytes_read.021.us
  %sub28.us = sub i64 %left.023.us, %spec.select.us
  %4 = load ptr, ptr %read_head_, align 8
  %read_pos_2.i.us = getelementptr inbounds i8, ptr %4, i64 8
  %5 = load i64, ptr %read_pos_2.i.us, align 8
  %cmp.not3.i.us = icmp eq i64 %5, 0
  br i1 %cmp.not3.i.us, label %_ZN4node6crypto7NodeBIO15TryMoveReadHeadEv.exit.us, label %land.rhs.i.us

land.rhs.i.us:                                    ; preds = %do.end9.us, %if.end.i.us
  %6 = phi i64 [ %14, %if.end.i.us ], [ %5, %do.end9.us ]
  %read_pos_4.i.us = phi ptr [ %read_pos_.i.us, %if.end.i.us ], [ %read_pos_2.i.us, %do.end9.us ]
  %7 = phi ptr [ %13, %if.end.i.us ], [ %4, %do.end9.us ]
  %write_pos_.i.us = getelementptr inbounds i8, ptr %7, i64 16
  %8 = load i64, ptr %write_pos_.i.us, align 8
  %cmp5.i.us = icmp eq i64 %6, %8
  br i1 %cmp5.i.us, label %while.body.i.us, label %_ZN4node6crypto7NodeBIO15TryMoveReadHeadEv.exit.us

while.body.i.us:                                  ; preds = %land.rhs.i.us
  store i64 0, ptr %read_pos_4.i.us, align 8
  %9 = load ptr, ptr %read_head_, align 8
  %write_pos_9.i.us = getelementptr inbounds i8, ptr %9, i64 16
  store i64 0, ptr %write_pos_9.i.us, align 8
  %10 = load ptr, ptr %read_head_, align 8
  %11 = load ptr, ptr %write_head_.i, align 8
  %cmp11.not.i.us = icmp eq ptr %10, %11
  br i1 %cmp11.not.i.us, label %if.end.i.us, label %if.then.i.us

if.then.i.us:                                     ; preds = %while.body.i.us
  %next_.i.us = getelementptr inbounds i8, ptr %10, i64 32
  %12 = load ptr, ptr %next_.i.us, align 8
  store ptr %12, ptr %read_head_, align 8
  br label %if.end.i.us

if.end.i.us:                                      ; preds = %if.then.i.us, %while.body.i.us
  %13 = phi ptr [ %12, %if.then.i.us ], [ %10, %while.body.i.us ]
  %read_pos_.i.us = getelementptr inbounds i8, ptr %13, i64 8
  %14 = load i64, ptr %read_pos_.i.us, align 8
  %cmp.not.i.us = icmp eq i64 %14, 0
  br i1 %cmp.not.i.us, label %_ZN4node6crypto7NodeBIO15TryMoveReadHeadEv.exit.us, label %land.rhs.i.us, !llvm.loop !6

_ZN4node6crypto7NodeBIO15TryMoveReadHeadEv.exit.us: ; preds = %land.rhs.i.us, %if.end.i.us, %do.end9.us
  %15 = phi ptr [ %4, %do.end9.us ], [ %7, %land.rhs.i.us ], [ %13, %if.end.i.us ]
  %cmp3.us = icmp ult i64 %add26.us, %spec.select18
  br i1 %cmp3.us, label %do.body.us, label %do.body29, !llvm.loop !8

do.body:                                          ; preds = %do.body.lr.ph, %_ZN4node6crypto7NodeBIO15TryMoveReadHeadEv.exit
  %16 = phi ptr [ %33, %_ZN4node6crypto7NodeBIO15TryMoveReadHeadEv.exit ], [ %.pre26, %do.body.lr.ph ]
  %left.023 = phi i64 [ %sub28, %_ZN4node6crypto7NodeBIO15TryMoveReadHeadEv.exit ], [ %size, %do.body.lr.ph ]
  %offset.022 = phi i64 [ %add27, %_ZN4node6crypto7NodeBIO15TryMoveReadHeadEv.exit ], [ 0, %do.body.lr.ph ]
  %bytes_read.021 = phi i64 [ %add26, %_ZN4node6crypto7NodeBIO15TryMoveReadHeadEv.exit ], [ 0, %do.body.lr.ph ]
  %read_pos_ = getelementptr inbounds i8, ptr %16, i64 8
  %17 = load i64, ptr %read_pos_, align 8
  %write_pos_ = getelementptr inbounds i8, ptr %16, i64 16
  %18 = load i64, ptr %write_pos_, align 8
  %cmp5.not = icmp ugt i64 %17, %18
  br i1 %cmp5.not, label %do.body8, label %do.end9

do.body8:                                         ; preds = %do.body, %do.body.us
  tail call void @_ZN4node6AssertERKNS_13AssertionInfoE(ptr noundef nonnull align 8 dereferenceable(24) @_ZZN4node6crypto7NodeBIO4ReadEPcmE4args) #16
  tail call void @abort() #17
  unreachable

do.end9:                                          ; preds = %do.body
  %sub = sub i64 %18, %17
  %spec.select = tail call i64 @llvm.umin.i64(i64 %sub, i64 %left.023)
  %add.ptr = getelementptr inbounds i8, ptr %out, i64 %offset.022
  %data_ = getelementptr inbounds i8, ptr %16, i64 40
  %19 = load ptr, ptr %data_, align 8
  %add.ptr22 = getelementptr inbounds i8, ptr %19, i64 %17
  tail call void @llvm.memcpy.p0.p0.i64(ptr nonnull align 1 %add.ptr, ptr align 1 %add.ptr22, i64 %spec.select, i1 false)
  %20 = load ptr, ptr %read_head_, align 8
  %read_pos_25 = getelementptr inbounds i8, ptr %20, i64 8
  %21 = load i64, ptr %read_pos_25, align 8
  %add = add i64 %21, %spec.select
  store i64 %add, ptr %read_pos_25, align 8
  %add26 = add i64 %spec.select, %bytes_read.021
  %add27 = add i64 %spec.select, %offset.022
  %sub28 = sub i64 %left.023, %spec.select
  %22 = load ptr, ptr %read_head_, align 8
  %read_pos_2.i = getelementptr inbounds i8, ptr %22, i64 8
  %23 = load i64, ptr %read_pos_2.i, align 8
  %cmp.not3.i = icmp eq i64 %23, 0
  br i1 %cmp.not3.i, label %_ZN4node6crypto7NodeBIO15TryMoveReadHeadEv.exit, label %land.rhs.i

land.rhs.i:                                       ; preds = %do.end9, %if.end.i
  %24 = phi i64 [ %32, %if.end.i ], [ %23, %do.end9 ]
  %read_pos_4.i = phi ptr [ %read_pos_.i, %if.end.i ], [ %read_pos_2.i, %do.end9 ]
  %25 = phi ptr [ %31, %if.end.i ], [ %22, %do.end9 ]
  %write_pos_.i = getelementptr inbounds i8, ptr %25, i64 16
  %26 = load i64, ptr %write_pos_.i, align 8
  %cmp5.i = icmp eq i64 %24, %26
  br i1 %cmp5.i, label %while.body.i, label %_ZN4node6crypto7NodeBIO15TryMoveReadHeadEv.exit

while.body.i:                                     ; preds = %land.rhs.i
  store i64 0, ptr %read_pos_4.i, align 8
  %27 = load ptr, ptr %read_head_, align 8
  %write_pos_9.i = getelementptr inbounds i8, ptr %27, i64 16
  store i64 0, ptr %write_pos_9.i, align 8
  %28 = load ptr, ptr %read_head_, align 8
  %29 = load ptr, ptr %write_head_.i, align 8
  %cmp11.not.i = icmp eq ptr %28, %29
  br i1 %cmp11.not.i, label %if.end.i, label %if.then.i

if.then.i:                                        ; preds = %while.body.i
  %next_.i = getelementptr inbounds i8, ptr %28, i64 32
  %30 = load ptr, ptr %next_.i, align 8
  store ptr %30, ptr %read_head_, align 8
  br label %if.end.i

if.end.i:                                         ; preds = %if.then.i, %while.body.i
  %31 = phi ptr [ %30, %if.then.i ], [ %28, %while.body.i ]
  %read_pos_.i = getelementptr inbounds i8, ptr %31, i64 8
  %32 = load i64, ptr %read_pos_.i, align 8
  %cmp.not.i = icmp eq i64 %32, 0
  br i1 %cmp.not.i, label %_ZN4node6crypto7NodeBIO15TryMoveReadHeadEv.exit, label %land.rhs.i, !llvm.loop !6

_ZN4node6crypto7NodeBIO15TryMoveReadHeadEv.exit:  ; preds = %land.rhs.i, %if.end.i, %do.end9
  %33 = phi ptr [ %22, %do.end9 ], [ %25, %land.rhs.i ], [ %31, %if.end.i ]
  %cmp3 = icmp ult i64 %add26, %spec.select18
  br i1 %cmp3, label %do.body, label %do.body29, !llvm.loop !8

do.body29:                                        ; preds = %_ZN4node6crypto7NodeBIO15TryMoveReadHeadEv.exit, %_ZN4node6crypto7NodeBIO15TryMoveReadHeadEv.exit.us
  %bytes_read.0.lcssa = phi i64 [ %add26.us, %_ZN4node6crypto7NodeBIO15TryMoveReadHeadEv.exit.us ], [ %add26, %_ZN4node6crypto7NodeBIO15TryMoveReadHeadEv.exit ]
  %cmp30.not = icmp eq i64 %spec.select18, %bytes_read.0.lcssa
  br i1 %cmp30.not, label %do.end38, label %do.body35

do.body35:                                        ; preds = %do.body29
  tail call void @_ZN4node6AssertERKNS_13AssertionInfoE(ptr noundef nonnull align 8 dereferenceable(24) @_ZZN4node6crypto7NodeBIO4ReadEPcmE4args_0) #16
  tail call void @abort() #17
  unreachable

do.end38:                                         ; preds = %entry, %do.body29
  %34 = load i64, ptr %length_.i, align 8
  %sub39 = sub i64 %34, %spec.select18
  store i64 %sub39, ptr %length_.i, align 8
  tail call void @_ZN4node6crypto7NodeBIO9FreeEmptyEv(ptr noundef nonnull align 8 dereferenceable(64) %this)
  ret i64 %spec.select18
}